target datalayout = "e-m:e-p270:32:32-p271:32:32-p272:64:64-i64:64-i128:128-f80:128-n8:16:32:64-S128"
target triple = "x86_64-pc-linux-gnu"

@.str = private unnamed_addr constant [32 x i8] c"../openssl/crypto/cmp/cmp_msg.c\00", align 1
@__func__.gen_new = private unnamed_addr constant [8 x i8] c"gen_new\00", align 1

; Function Attrs: nounwind uwtable
define void @OSSL_CMP_MSG_free(ptr noundef %0) #0 {
  %2 = alloca ptr, align 8
  store ptr %0, ptr %2, align 8, !tbaa !10
  %3 = load ptr, ptr %2, align 8, !tbaa !10
  %4 = call ptr @OSSL_CMP_MSG_it()
  call void @ASN1_item_free(ptr noundef %3, ptr noundef %4)
  ret void
}

; Function Attrs: nounwind uwtable
define internal ptr @gen_new(ptr noundef %0, ptr noundef %1, i32 noundef %2, i32 noundef %3) #0 {
  %5 = alloca ptr, align 8
  %6 = alloca ptr, align 8
  %7 = alloca ptr, align 8
  %8 = alloca i32, align 4
  %9 = alloca i32, align 4
  %10 = alloca ptr, align 8
  %11 = alloca i32, align 4
  store ptr %0, ptr %6, align 8, !tbaa !34
  store ptr %1, ptr %7, align 8, !tbaa !137
  store i32 %2, ptr %8, align 4, !tbaa !20
  store i32 %3, ptr %9, align 4, !tbaa !20
  call void @llvm.lifetime.start.p0(i64 8, ptr %10) #6
  store ptr null, ptr %10, align 8, !tbaa !10
  %12 = load ptr, ptr %6, align 8, !tbaa !34
  %13 = icmp ne ptr %12, null
  %14 = zext i1 %13 to i32
  %15 = icmp ne i32 %14, 0
  %16 = xor i1 %15, true
  %17 = xor i1 %16, true
  %18 = zext i1 %17 to i32
  %19 = sext i32 %18 to i64
  %20 = call i64 @llvm.expect.i64(i64 %19, i64 1)
  %21 = icmp ne i64 %20, 0
  br i1 %21, label %23, label %22

22:                                               ; preds = %4
  store ptr null, ptr %5, align 8
  store i32 1, ptr %11, align 4
  br label %49

23:                                               ; preds = %4
  %24 = load ptr, ptr %6, align 8, !tbaa !34
  %25 = load i32, ptr %8, align 4, !tbaa !20
  %26 = call ptr @ossl_cmp_msg_create(ptr noundef %24, i32 noundef %25)
  store ptr %26, ptr %10, align 8, !tbaa !10
  %27 = icmp eq ptr %26, null
  br i1 %27, label %28, label %29

28:                                               ; preds = %23
  store ptr null, ptr %5, align 8
  store i32 1, ptr %11, align 4
  br label %49

29:                                               ; preds = %23
  %30 = load ptr, ptr %7, align 8, !tbaa !137
  %31 = icmp ne ptr %30, null
  br i1 %31, label %32, label %38

32:                                               ; preds = %29
  %33 = load ptr, ptr %10, align 8, !tbaa !10
  %34 = load ptr, ptr %7, align 8, !tbaa !137
  %35 = call i32 @ossl_cmp_msg_gen_push1_ITAVs(ptr noundef %33, ptr noundef %34)
  %36 = icmp ne i32 %35, 0
  br i1 %36, label %38, label %37

37:                                               ; preds = %32
  br label %46

38:                                               ; preds = %32, %29
  %39 = load ptr, ptr %6, align 8, !tbaa !34
  %40 = load ptr, ptr %10, align 8, !tbaa !10
  %41 = call i32 @ossl_cmp_msg_protect(ptr noundef %39, ptr noundef %40)
  %42 = icmp ne i32 %41, 0
  br i1 %42, label %44, label %43

43:                                               ; preds = %38
  br label %46

44:                                               ; preds = %38
  %45 = load ptr, ptr %10, align 8, !tbaa !10
  store ptr %45, ptr %5, align 8
  store i32 1, ptr %11, align 4
  br label %49

46:                                               ; preds = %43, %37
  call void @ERR_new()
  call void @ERR_set_debug(ptr noundef @.str, i32 noundef 767, ptr noundef @__func__.gen_new)
  %47 = load i32, ptr %9, align 4, !tbaa !20
  call void (i32, i32, ptr, ...) @ERR_set_error(i32 noundef 58, i32 noundef %47, ptr noundef null)
  %48 = load ptr, ptr %10, align 8, !tbaa !10
  call void @OSSL_CMP_MSG_free(ptr noundef %48)
  store ptr null, ptr %5, align 8
  store i32 1, ptr %11, align 4
  br label %49

49:                                               ; preds = %46, %44, %28, %22
  call void @llvm.lifetime.end.p0(i64 8, ptr %10) #6
  %50 = load ptr, ptr %5, align 8
  ret ptr %50
}