; Function Attrs: nounwind uwtable
define internal fastcc ptr @gen_new(ptr noundef %0, ptr noundef %1, i32 noundef range(i32 21, 23) %2, i32 noundef range(i32 119, 121) %3) unnamed_addr #0 {
  %.not = icmp eq ptr %0, null
  br i1 %.not, label %15, label %5, !prof !18

5:                                                ; preds = %4
  %6 = tail call ptr @ossl_cmp_msg_create(ptr noundef nonnull %0, i32 noundef %2)
  %7 = icmp eq ptr %6, null
  br i1 %7, label %15, label %8

8:                                                ; preds = %5
  %.not14 = icmp eq ptr %1, null
  br i1 %.not14, label %11, label %9

9:                                                ; preds = %8
  %10 = tail call i32 @ossl_cmp_msg_gen_push1_ITAVs(ptr noundef nonnull %6, ptr noundef nonnull %1)
  %.not15 = icmp eq i32 %10, 0
  br i1 %.not15, label %13, label %11

11:                                               ; preds = %9, %8
  %12 = tail call i32 @ossl_cmp_msg_protect(ptr noundef nonnull %0, ptr noundef nonnull %6) #7
  %.not16 = icmp eq i32 %12, 0
  br i1 %.not16, label %13, label %15

13:                                               ; preds = %11, %9
  tail call void @ERR_new() #7
  tail call void @ERR_set_debug(ptr noundef nonnull @.str, i32 noundef 767, ptr noundef nonnull @__func__.gen_new) #7
  tail call void (i32, i32, ptr, ...) @ERR_set_error(i32 noundef 58, i32 noundef %3, ptr noundef null) #7
  %14 = tail call ptr @OSSL_CMP_MSG_it() #7
  tail call void @ASN1_item_free(ptr noundef nonnull %6, ptr noundef %14) #7
  br label %15

15:                                               ; preds = %11, %5, %4, %13
  %.0 = phi ptr [ null, %13 ], [ null, %4 ], [ null, %5 ], [ %6, %11 ]
  ret ptr %.0
}